target datalayout = "e-m:e-p270:32:32-p271:32:32-p272:64:64-i64:64-i128:128-f80:128-n8:16:32:64-S128"
target triple = "x86_64-pc-linux-gnu"

%"struct.Type::TypeInfo" = type { i32, i8, ptr, i8, i32, i32 }
%class.Type = type <{ ptr, ptr, i32, [4 x i8] }>

@_ZN4Type10_type_infoE = external global [0 x %"struct.Type::TypeInfo"], align 8

; Function Attrs: mustprogress nounwind uwtable
define linkonce_odr hidden noundef zeroext i8 @_ZNK4Type10basic_typeEv(ptr noundef nonnull align 8 dereferenceable(20) %0) #1 comdat align 2 {
  %2 = alloca ptr, align 8
  store ptr %0, ptr %2, align 8
  %3 = load ptr, ptr %2, align 8
  %4 = getelementptr inbounds %class.Type, ptr %3, i32 0, i32 2
  %5 = load i32, ptr %4, align 8
  %6 = zext i32 %5 to i64
  %7 = getelementptr inbounds [0 x %"struct.Type::TypeInfo"], ptr @_ZN4Type10_type_infoE, i64 0, i64 %6
  %8 = getelementptr inbounds %"struct.Type::TypeInfo", ptr %7, i32 0, i32 1
  %9 = load i8, ptr %8, align 4
  ret i8 %9
}

; Function Attrs: mustprogress nounwind uwtable
define hidden noundef zeroext i1 @_ZN15VLoopReductions21is_reduction_operatorEPK4Node(ptr noundef %0) #1 align 2 {
  %2 = alloca ptr, align 8
  %3 = alloca i32, align 4
  store ptr %0, ptr %2, align 8
  %4 = load ptr, ptr %2, align 8
  %5 = load ptr, ptr %4, align 8
  %6 = getelementptr inbounds ptr, ptr %5, i64 0
  %7 = load ptr, ptr %6, align 8
  %8 = call noundef i32 %7(ptr noundef nonnull align 8 dereferenceable(52) %4)
  store i32 %8, ptr %3, align 4
  %9 = load i32, ptr %3, align 4
  %10 = load i32, ptr %3, align 4
  %11 = load ptr, ptr %2, align 8
  %12 = load ptr, ptr %11, align 8
  %13 = getelementptr inbounds ptr, ptr %12, i64 5
  %14 = load ptr, ptr %13, align 8
  %15 = call noundef ptr %14(ptr noundef nonnull align 8 dereferenceable(52) %11)
  %16 = call noundef zeroext i8 @_ZNK4Type10basic_typeEv(ptr noundef nonnull align 8 dereferenceable(20) %15)
  %17 = call noundef i32 @_ZN13ReductionNode6opcodeEi9BasicType(i32 noundef %10, i8 noundef zeroext %16)
  %18 = icmp ne i32 %9, %17
  ret i1 %18
}