; Function Attrs: mustprogress nounwind uwtable
define hidden noundef zeroext i1 @_ZN15VLoopReductions21is_reduction_operatorEPK4Node(ptr noundef %0) local_unnamed_addr #0 align 2 {
  %2 = load ptr, ptr %0, align 8
  %3 = load ptr, ptr %2, align 8
  %4 = tail call noundef i32 %3(ptr noundef nonnull align 8 dereferenceable(52) %0) #12
  %5 = load ptr, ptr %0, align 8
  %6 = getelementptr inbounds i8, ptr %5, i64 40
  %7 = load ptr, ptr %6, align 8
  %8 = tail call noundef ptr %7(ptr noundef nonnull align 8 dereferenceable(52) %0) #12
  %9 = getelementptr inbounds i8, ptr %8, i64 16
  %10 = load i32, ptr %9, align 8
  %11 = zext i32 %10 to i64
  %12 = getelementptr inbounds [0 x %"struct.Type::TypeInfo"], ptr @_ZN4Type10_type_infoE, i64 0, i64 %11, i32 1
  %13 = load i8, ptr %12, align 4
  %14 = tail call noundef i32 @_ZN13ReductionNode6opcodeEi9BasicType(i32 noundef %4, i8 noundef zeroext %13) #12
  %15 = icmp ne i32 %4, %14
  ret i1 %15
}